ARM GAS  C:\Users\serga\AppData\Local\Temp\ccBUXdXZ.s 			page 1


   1              		.syntax unified
   2              		.cpu cortex-m3
   3              		.fpu softvfp
   4              		.eabi_attribute 20, 1
   5              		.eabi_attribute 21, 1
   6              		.eabi_attribute 23, 3
   7              		.eabi_attribute 24, 1
   8              		.eabi_attribute 25, 1
   9              		.eabi_attribute 26, 1
  10              		.eabi_attribute 30, 1
  11              		.eabi_attribute 34, 1
  12              		.eabi_attribute 18, 4
  13              		.thumb
  14              		.syntax unified
  15              		.file	"main.c"
  16              		.text
  17              	.Ltext0:
  18              		.cfi_sections	.debug_frame
  19              		.section	.text.Write_SPI,"ax",%progbits
  20              		.align	2
  21              		.global	Write_SPI
  22              		.thumb
  23              		.thumb_func
  24              		.type	Write_SPI, %function
  25              	Write_SPI:
  26              	.LFB64:
  27              		.file 1 "main.c"
   1:main.c        **** /* ========================================
   2:main.c        ****  *
   3:main.c        ****  * Copyright YOUR COMPANY, THE YEAR
   4:main.c        ****  * All Rights Reserved
   5:main.c        ****  * UNPUBLISHED, LICENSED SOFTWARE.
   6:main.c        ****  *
   7:main.c        ****  * CONFIDENTIAL AND PROPRIETARY INFORMATION
   8:main.c        ****  * WHICH IS THE PROPERTY OF your company.
   9:main.c        ****  *
  10:main.c        ****  * ========================================
  11:main.c        **** */
  12:main.c        **** #include "project.h"
  13:main.c        **** #include <stdio.h>
  14:main.c        **** 
  15:main.c        **** // ADXL345 Register Definition
  16:main.c        **** #define     RA_BW_RATE          0x2C    // R/W   0x0A   Data rate and power mode control
  17:main.c        **** #define 	RA_DATA_FORMAT 	    0x31 	// R/W 	 0   	Data format control
  18:main.c        **** #define 	RA_POWER_CTL 	    0x2D 	// R/W 	 0   	Power-saving features control
  19:main.c        **** #define 	RA_DATAX0 	        0x32 	// R 	 0 	    X-Axis Data 0
  20:main.c        **** #define 	RA_DATAX1 	        0x33 	// R 	 0 	    X-Axis Data 1
  21:main.c        **** #define 	RA_DATAY0 	        0x34 	// R 	 0 	    Y-Axis Data 0
  22:main.c        **** #define 	RA_DATAY1 	        0x35 	// R 	 0 	    Y-Axis Data 1
  23:main.c        **** #define 	RA_DATAZ0 	        0x36 	// R 	 0 	    Z-Axis Data 0
  24:main.c        **** #define 	RA_DATAZ1 	        0x37 	// R 	 0 	    Z-Axis Data 1
  25:main.c        **** #define     RA_OFSX             0x1E    // R/W   0      X-axis offset
  26:main.c        **** #define     RA_OFSY             0x1F    // R/W   0      Y-axis offset
  27:main.c        **** #define     RA_OFSZ             0x20    // R/W   0      Z-axis offset
  28:main.c        **** 
  29:main.c        **** #define     SPI_READ            0x80
  30:main.c        **** #define     SPI_WRITE           0x00
ARM GAS  C:\Users\serga\AppData\Local\Temp\ccBUXdXZ.s 			page 2


  31:main.c        **** #define     SPI_MULTIPLE_BIT    0x40
  32:main.c        **** #define     SPI_SINGLE_BIT      0x00
  33:main.c        **** 
  34:main.c        **** #define SCALE_FACTOR    3.9f 
  35:main.c        **** 
  36:main.c        **** float cal_X = 0, cal_Y = 0, cal_Z = 0; 
  37:main.c        **** int16 x, y, z;
  38:main.c        **** float xg, yg, zg;
  39:main.c        **** char buffer[50]; 
  40:main.c        **** char raw[6];    // raw data from regs: DATAX0, DATAX1, DATAY0, DATAY1, DATAZ0, DATAZ1
  41:main.c        **** 
  42:main.c        **** void Write_SPI(unsigned char reg, unsigned char data)       // write single byte via SPI
  43:main.c        **** {
  28              		.loc 1 43 0
  29              		.cfi_startproc
  30              		@ args = 0, pretend = 0, frame = 0
  31              		@ frame_needed = 0, uses_anonymous_args = 0
  32              	.LVL0:
  33 0000 10B5     		push	{r4, lr}
  34              		.cfi_def_cfa_offset 8
  35              		.cfi_offset 4, -8
  36              		.cfi_offset 14, -4
  37 0002 0C46     		mov	r4, r1
  38              	.LVL1:
  44:main.c        ****     unsigned char addr = reg | SPI_WRITE;
  45:main.c        **** 
  46:main.c        ****     SPIM_WriteTxData(addr);
  39              		.loc 1 46 0
  40 0004 FFF7FEFF 		bl	SPIM_WriteTxData
  41              	.LVL2:
  47:main.c        ****     SPIM_WriteTxData(data);
  42              		.loc 1 47 0
  43 0008 2046     		mov	r0, r4
  44 000a FFF7FEFF 		bl	SPIM_WriteTxData
  45              	.LVL3:
  46              	.L2:
  48:main.c        ****     while((SPIM_ReadTxStatus() & SPIM_STS_SPI_DONE) != SPIM_STS_SPI_DONE);
  47              		.loc 1 48 0 discriminator 1
  48 000e FFF7FEFF 		bl	SPIM_ReadTxStatus
  49              	.LVL4:
  50 0012 10F0010F 		tst	r0, #1
  51 0016 FAD0     		beq	.L2
  49:main.c        **** }
  52              		.loc 1 49 0
  53 0018 10BD     		pop	{r4, pc}
  54              		.cfi_endproc
  55              	.LFE64:
  56              		.size	Write_SPI, .-Write_SPI
  57 001a 00BF     		.section	.text.Read_SPI,"ax",%progbits
  58              		.align	2
  59              		.global	Read_SPI
  60              		.thumb
  61              		.thumb_func
  62              		.type	Read_SPI, %function
  63              	Read_SPI:
  64              	.LFB65:
  50:main.c        **** 
ARM GAS  C:\Users\serga\AppData\Local\Temp\ccBUXdXZ.s 			page 3


  51:main.c        **** unsigned char Read_SPI(unsigned char reg)                   // read single byte via SPI
  52:main.c        **** {
  65              		.loc 1 52 0
  66              		.cfi_startproc
  67              		@ args = 0, pretend = 0, frame = 0
  68              		@ frame_needed = 0, uses_anonymous_args = 0
  69              	.LVL5:
  70 0000 10B5     		push	{r4, lr}
  71              		.cfi_def_cfa_offset 8
  72              		.cfi_offset 4, -8
  73              		.cfi_offset 14, -4
  53:main.c        ****     unsigned char data;
  54:main.c        ****     unsigned char addr = reg | SPI_READ;
  74              		.loc 1 54 0
  75 0002 40F08004 		orr	r4, r0, #128
  76              	.LVL6:
  55:main.c        **** 
  56:main.c        ****     SPIM_ClearRxBuffer();
  77              		.loc 1 56 0
  78 0006 FFF7FEFF 		bl	SPIM_ClearRxBuffer
  79              	.LVL7:
  57:main.c        ****     SPIM_WriteTxData(addr);
  80              		.loc 1 57 0
  81 000a 2046     		mov	r0, r4
  82 000c FFF7FEFF 		bl	SPIM_WriteTxData
  83              	.LVL8:
  58:main.c        ****     SPIM_WriteTxData(0xFF);
  84              		.loc 1 58 0
  85 0010 FF20     		movs	r0, #255
  86 0012 FFF7FEFF 		bl	SPIM_WriteTxData
  87              	.LVL9:
  88              	.L5:
  59:main.c        ****     while((SPIM_ReadTxStatus() & SPIM_STS_SPI_DONE) != SPIM_STS_SPI_DONE);
  89              		.loc 1 59 0 discriminator 1
  90 0016 FFF7FEFF 		bl	SPIM_ReadTxStatus
  91              	.LVL10:
  92 001a 10F0010F 		tst	r0, #1
  93 001e FAD0     		beq	.L5
  94              	.L6:
  60:main.c        ****     while(SPIM_GetRxBufferSize() < 2);
  95              		.loc 1 60 0 discriminator 1
  96 0020 FFF7FEFF 		bl	SPIM_GetRxBufferSize
  97              	.LVL11:
  98 0024 0128     		cmp	r0, #1
  99 0026 FBD9     		bls	.L6
  61:main.c        ****     SPIM_ReadRxData();
 100              		.loc 1 61 0
 101 0028 FFF7FEFF 		bl	SPIM_ReadRxData
 102              	.LVL12:
  62:main.c        ****     data = SPIM_ReadRxData();
 103              		.loc 1 62 0
 104 002c FFF7FEFF 		bl	SPIM_ReadRxData
 105              	.LVL13:
 106 0030 0446     		mov	r4, r0
 107              	.LVL14:
  63:main.c        ****     SPIM_ClearRxBuffer();
 108              		.loc 1 63 0
ARM GAS  C:\Users\serga\AppData\Local\Temp\ccBUXdXZ.s 			page 4


 109 0032 FFF7FEFF 		bl	SPIM_ClearRxBuffer
 110              	.LVL15:
  64:main.c        **** 
  65:main.c        ****     return data;
  66:main.c        **** }
 111              		.loc 1 66 0
 112 0036 2046     		mov	r0, r4
 113 0038 10BD     		pop	{r4, pc}
 114              		.cfi_endproc
 115              	.LFE65:
 116              		.size	Read_SPI, .-Read_SPI
 117 003a 00BF     		.section	.text.ADXL345_Init,"ax",%progbits
 118              		.align	2
 119              		.global	ADXL345_Init
 120              		.thumb
 121              		.thumb_func
 122              		.type	ADXL345_Init, %function
 123              	ADXL345_Init:
 124              	.LFB66:
  67:main.c        **** 
  68:main.c        **** void ADXL345_Init(void)
  69:main.c        **** {
 125              		.loc 1 69 0
 126              		.cfi_startproc
 127              		@ args = 0, pretend = 0, frame = 0
 128              		@ frame_needed = 0, uses_anonymous_args = 0
 129 0000 08B5     		push	{r3, lr}
 130              		.cfi_def_cfa_offset 8
 131              		.cfi_offset 3, -8
 132              		.cfi_offset 14, -4
  70:main.c        ****     CyDelay(2u);
 133              		.loc 1 70 0
 134 0002 0220     		movs	r0, #2
 135 0004 FFF7FEFF 		bl	CyDelay
 136              	.LVL16:
  71:main.c        ****     Write_SPI(RA_POWER_CTL, 0x08);     //  START MEASUREMENT
 137              		.loc 1 71 0
 138 0008 0821     		movs	r1, #8
 139 000a 2D20     		movs	r0, #45
 140 000c FFF7FEFF 		bl	Write_SPI
 141              	.LVL17:
  72:main.c        ****     Write_SPI(RA_BW_RATE, 0x08);       //  25 Hz
 142              		.loc 1 72 0
 143 0010 0821     		movs	r1, #8
 144 0012 2C20     		movs	r0, #44
 145 0014 FFF7FEFF 		bl	Write_SPI
 146              	.LVL18:
  73:main.c        ****     Write_SPI(RA_DATA_FORMAT, 0x0B);   //  +/-16g , 13-BIT MODE
 147              		.loc 1 73 0
 148 0018 0B21     		movs	r1, #11
 149 001a 3120     		movs	r0, #49
 150 001c FFF7FEFF 		bl	Write_SPI
 151              	.LVL19:
  74:main.c        **** 
  75:main.c        ****     CyDelay(2u);
 152              		.loc 1 75 0
 153 0020 0220     		movs	r0, #2
ARM GAS  C:\Users\serga\AppData\Local\Temp\ccBUXdXZ.s 			page 5


 154 0022 FFF7FEFF 		bl	CyDelay
 155              	.LVL20:
 156 0026 08BD     		pop	{r3, pc}
 157              		.cfi_endproc
 158              	.LFE66:
 159              		.size	ADXL345_Init, .-ADXL345_Init
 160              		.global	__aeabi_i2f
 161              		.global	__aeabi_fmul
 162              		.global	__aeabi_fdiv
 163              		.section	.text.Get_Accel_Values,"ax",%progbits
 164              		.align	2
 165              		.global	Get_Accel_Values
 166              		.thumb
 167              		.thumb_func
 168              		.type	Get_Accel_Values, %function
 169              	Get_Accel_Values:
 170              	.LFB67:
  76:main.c        **** }
  77:main.c        **** 
  78:main.c        **** void Get_Accel_Values(void)
  79:main.c        **** {
 171              		.loc 1 79 0
 172              		.cfi_startproc
 173              		@ args = 0, pretend = 0, frame = 0
 174              		@ frame_needed = 0, uses_anonymous_args = 0
 175 0000 70B5     		push	{r4, r5, r6, lr}
 176              		.cfi_def_cfa_offset 16
 177              		.cfi_offset 4, -16
 178              		.cfi_offset 5, -12
 179              		.cfi_offset 6, -8
 180              		.cfi_offset 14, -4
  80:main.c        ****     x = ((Read_SPI(RA_DATAX1) << 8) | Read_SPI(RA_DATAX0)); 
 181              		.loc 1 80 0
 182 0002 3320     		movs	r0, #51
 183 0004 FFF7FEFF 		bl	Read_SPI
 184              	.LVL21:
 185 0008 0402     		lsls	r4, r0, #8
 186 000a 3220     		movs	r0, #50
 187 000c FFF7FEFF 		bl	Read_SPI
 188              	.LVL22:
 189 0010 1D4D     		ldr	r5, .L12
 190 0012 2043     		orrs	r0, r0, r4
 191 0014 2880     		strh	r0, [r5]	@ movhi
  81:main.c        ****     y = ((Read_SPI(RA_DATAY1) << 8) | Read_SPI(RA_DATAY0)); 
 192              		.loc 1 81 0
 193 0016 3520     		movs	r0, #53
 194 0018 FFF7FEFF 		bl	Read_SPI
 195              	.LVL23:
 196 001c 0402     		lsls	r4, r0, #8
 197 001e 3420     		movs	r0, #52
 198 0020 FFF7FEFF 		bl	Read_SPI
 199              	.LVL24:
 200 0024 194E     		ldr	r6, .L12+4
 201 0026 2043     		orrs	r0, r0, r4
 202 0028 3080     		strh	r0, [r6]	@ movhi
  82:main.c        ****     z = ((Read_SPI(RA_DATAZ1) << 8) | Read_SPI(RA_DATAZ0)); 
 203              		.loc 1 82 0
ARM GAS  C:\Users\serga\AppData\Local\Temp\ccBUXdXZ.s 			page 6


 204 002a 3720     		movs	r0, #55
 205 002c FFF7FEFF 		bl	Read_SPI
 206              	.LVL25:
 207 0030 0402     		lsls	r4, r0, #8
 208 0032 3620     		movs	r0, #54
 209 0034 FFF7FEFF 		bl	Read_SPI
 210              	.LVL26:
 211 0038 2043     		orrs	r0, r0, r4
 212 003a 04B2     		sxth	r4, r0
 213 003c 144B     		ldr	r3, .L12+8
 214 003e 1C80     		strh	r4, [r3]	@ movhi
  83:main.c        ****     
  84:main.c        ****     xg = SCALE_FACTOR * (float)x / 1000.0;
 215              		.loc 1 84 0
 216 0040 B5F90000 		ldrsh	r0, [r5]
 217 0044 FFF7FEFF 		bl	__aeabi_i2f
 218              	.LVL27:
 219 0048 1249     		ldr	r1, .L12+12
 220 004a FFF7FEFF 		bl	__aeabi_fmul
 221              	.LVL28:
 222 004e 1249     		ldr	r1, .L12+16
 223 0050 FFF7FEFF 		bl	__aeabi_fdiv
 224              	.LVL29:
 225 0054 114B     		ldr	r3, .L12+20
 226 0056 1860     		str	r0, [r3]	@ float
  85:main.c        ****     yg = SCALE_FACTOR * (float)y / 1000.0;
 227              		.loc 1 85 0
 228 0058 B6F90000 		ldrsh	r0, [r6]
 229 005c FFF7FEFF 		bl	__aeabi_i2f
 230              	.LVL30:
 231 0060 0C49     		ldr	r1, .L12+12
 232 0062 FFF7FEFF 		bl	__aeabi_fmul
 233              	.LVL31:
 234 0066 0C49     		ldr	r1, .L12+16
 235 0068 FFF7FEFF 		bl	__aeabi_fdiv
 236              	.LVL32:
 237 006c 0C4B     		ldr	r3, .L12+24
 238 006e 1860     		str	r0, [r3]	@ float
  86:main.c        ****     zg = SCALE_FACTOR * (float)z / 1000.0;   
 239              		.loc 1 86 0
 240 0070 2046     		mov	r0, r4
 241 0072 FFF7FEFF 		bl	__aeabi_i2f
 242              	.LVL33:
 243 0076 0749     		ldr	r1, .L12+12
 244 0078 FFF7FEFF 		bl	__aeabi_fmul
 245              	.LVL34:
 246 007c 0649     		ldr	r1, .L12+16
 247 007e FFF7FEFF 		bl	__aeabi_fdiv
 248              	.LVL35:
 249 0082 084B     		ldr	r3, .L12+28
 250 0084 1860     		str	r0, [r3]	@ float
 251 0086 70BD     		pop	{r4, r5, r6, pc}
 252              	.L13:
 253              		.align	2
 254              	.L12:
 255 0088 00000000 		.word	x
 256 008c 00000000 		.word	y
ARM GAS  C:\Users\serga\AppData\Local\Temp\ccBUXdXZ.s 			page 7


 257 0090 00000000 		.word	z
 258 0094 9A997940 		.word	1081711002
 259 0098 00007A44 		.word	1148846080
 260 009c 00000000 		.word	xg
 261 00a0 00000000 		.word	yg
 262 00a4 00000000 		.word	zg
 263              		.cfi_endproc
 264              	.LFE67:
 265              		.size	Get_Accel_Values, .-Get_Accel_Values
 266              		.section	.text.Read_XYZ,"ax",%progbits
 267              		.align	2
 268              		.global	Read_XYZ
 269              		.thumb
 270              		.thumb_func
 271              		.type	Read_XYZ, %function
 272              	Read_XYZ:
 273              	.LFB68:
  87:main.c        **** }
  88:main.c        **** 
  89:main.c        **** void Read_XYZ()     // read acceleration values in one session
  90:main.c        **** {
 274              		.loc 1 90 0
 275              		.cfi_startproc
 276              		@ args = 0, pretend = 0, frame = 0
 277              		@ frame_needed = 0, uses_anonymous_args = 0
 278 0000 38B5     		push	{r3, r4, r5, lr}
 279              		.cfi_def_cfa_offset 16
 280              		.cfi_offset 3, -16
 281              		.cfi_offset 4, -12
 282              		.cfi_offset 5, -8
 283              		.cfi_offset 14, -4
 284              	.LVL36:
  91:main.c        ****     unsigned char addr = RA_DATAX0 | SPI_READ | SPI_MULTIPLE_BIT;
  92:main.c        ****     
  93:main.c        ****     SPIM_ClearRxBuffer();
 285              		.loc 1 93 0
 286 0002 FFF7FEFF 		bl	SPIM_ClearRxBuffer
 287              	.LVL37:
  94:main.c        ****     SPIM_WriteTxData(addr);
 288              		.loc 1 94 0
 289 0006 F220     		movs	r0, #242
 290 0008 FFF7FEFF 		bl	SPIM_WriteTxData
 291              	.LVL38:
 292              	.LBB2:
  95:main.c        ****     for (int i = 0; i < 6; i++)
 293              		.loc 1 95 0
 294 000c 0024     		movs	r4, #0
 295 000e 03E0     		b	.L15
 296              	.LVL39:
 297              	.L16:
  96:main.c        ****         SPIM_WriteTxData(0x00);
 298              		.loc 1 96 0 discriminator 3
 299 0010 0020     		movs	r0, #0
 300 0012 FFF7FEFF 		bl	SPIM_WriteTxData
 301              	.LVL40:
  95:main.c        ****     for (int i = 0; i < 6; i++)
 302              		.loc 1 95 0 discriminator 3
ARM GAS  C:\Users\serga\AppData\Local\Temp\ccBUXdXZ.s 			page 8


 303 0016 0134     		adds	r4, r4, #1
 304              	.LVL41:
 305              	.L15:
  95:main.c        ****     for (int i = 0; i < 6; i++)
 306              		.loc 1 95 0 is_stmt 0 discriminator 1
 307 0018 052C     		cmp	r4, #5
 308 001a F9DD     		ble	.L16
 309              	.L17:
 310              	.LBE2:
  97:main.c        **** 
  98:main.c        ****     while((SPIM_ReadTxStatus() & SPIM_STS_SPI_DONE) != SPIM_STS_SPI_DONE);
 311              		.loc 1 98 0 is_stmt 1 discriminator 1
 312 001c FFF7FEFF 		bl	SPIM_ReadTxStatus
 313              	.LVL42:
 314 0020 10F0010F 		tst	r0, #1
 315 0024 FAD0     		beq	.L17
 316              	.L18:
  99:main.c        ****     while(SPIM_GetRxBufferSize() < 7);
 317              		.loc 1 99 0 discriminator 1
 318 0026 FFF7FEFF 		bl	SPIM_GetRxBufferSize
 319              	.LVL43:
 320 002a 0628     		cmp	r0, #6
 321 002c FBD9     		bls	.L18
 100:main.c        ****     SPIM_ReadRxData();
 322              		.loc 1 100 0
 323 002e FFF7FEFF 		bl	SPIM_ReadRxData
 324              	.LVL44:
 325              	.LBB3:
 101:main.c        ****     
 102:main.c        ****     for (int i = 0; i < 6; i++)
 326              		.loc 1 102 0
 327 0032 0024     		movs	r4, #0
 328              	.LVL45:
 329 0034 04E0     		b	.L19
 330              	.LVL46:
 331              	.L20:
 103:main.c        ****         raw[i] = SPIM_ReadRxData();
 332              		.loc 1 103 0 discriminator 3
 333 0036 FFF7FEFF 		bl	SPIM_ReadRxData
 334              	.LVL47:
 335 003a 1E4B     		ldr	r3, .L22
 336 003c 1855     		strb	r0, [r3, r4]
 102:main.c        ****         raw[i] = SPIM_ReadRxData();
 337              		.loc 1 102 0 discriminator 3
 338 003e 0134     		adds	r4, r4, #1
 339              	.LVL48:
 340              	.L19:
 102:main.c        ****         raw[i] = SPIM_ReadRxData();
 341              		.loc 1 102 0 is_stmt 0 discriminator 1
 342 0040 052C     		cmp	r4, #5
 343 0042 F8DD     		ble	.L20
 344              	.LBE3:
 104:main.c        ****     
 105:main.c        ****     x = (raw[1] << 8) | raw[0]; 
 345              		.loc 1 105 0 is_stmt 1
 346 0044 1B4A     		ldr	r2, .L22
 347 0046 5078     		ldrb	r0, [r2, #1]	@ zero_extendqisi2
ARM GAS  C:\Users\serga\AppData\Local\Temp\ccBUXdXZ.s 			page 9


 348 0048 1378     		ldrb	r3, [r2]	@ zero_extendqisi2
 349 004a 43EA0020 		orr	r0, r3, r0, lsl #8
 350 004e 00B2     		sxth	r0, r0
 351 0050 194B     		ldr	r3, .L22+4
 352 0052 1880     		strh	r0, [r3]	@ movhi
 106:main.c        ****     y = (raw[3] << 8) | raw[2]; 
 353              		.loc 1 106 0
 354 0054 D578     		ldrb	r5, [r2, #3]	@ zero_extendqisi2
 355 0056 9378     		ldrb	r3, [r2, #2]	@ zero_extendqisi2
 356 0058 43EA0525 		orr	r5, r3, r5, lsl #8
 357 005c 2DB2     		sxth	r5, r5
 358 005e 174B     		ldr	r3, .L22+8
 359 0060 1D80     		strh	r5, [r3]	@ movhi
 107:main.c        ****     z = (raw[5] << 8) | raw[4]; 
 360              		.loc 1 107 0
 361 0062 5479     		ldrb	r4, [r2, #5]	@ zero_extendqisi2
 362              	.LVL49:
 363 0064 1379     		ldrb	r3, [r2, #4]	@ zero_extendqisi2
 364 0066 43EA0424 		orr	r4, r3, r4, lsl #8
 365 006a 24B2     		sxth	r4, r4
 366 006c 144B     		ldr	r3, .L22+12
 367 006e 1C80     		strh	r4, [r3]	@ movhi
 108:main.c        ****     
 109:main.c        ****     xg = SCALE_FACTOR * (float)x / 1000.0;
 368              		.loc 1 109 0
 369 0070 FFF7FEFF 		bl	__aeabi_i2f
 370              	.LVL50:
 371 0074 1349     		ldr	r1, .L22+16
 372 0076 FFF7FEFF 		bl	__aeabi_fmul
 373              	.LVL51:
 374 007a 1349     		ldr	r1, .L22+20
 375 007c FFF7FEFF 		bl	__aeabi_fdiv
 376              	.LVL52:
 377 0080 124B     		ldr	r3, .L22+24
 378 0082 1860     		str	r0, [r3]	@ float
 110:main.c        ****     yg = SCALE_FACTOR * (float)y / 1000.0;
 379              		.loc 1 110 0
 380 0084 2846     		mov	r0, r5
 381 0086 FFF7FEFF 		bl	__aeabi_i2f
 382              	.LVL53:
 383 008a 0E49     		ldr	r1, .L22+16
 384 008c FFF7FEFF 		bl	__aeabi_fmul
 385              	.LVL54:
 386 0090 0D49     		ldr	r1, .L22+20
 387 0092 FFF7FEFF 		bl	__aeabi_fdiv
 388              	.LVL55:
 389 0096 0E4B     		ldr	r3, .L22+28
 390 0098 1860     		str	r0, [r3]	@ float
 111:main.c        ****     zg = SCALE_FACTOR * (float)z / 1000.0; 
 391              		.loc 1 111 0
 392 009a 2046     		mov	r0, r4
 393 009c FFF7FEFF 		bl	__aeabi_i2f
 394              	.LVL56:
 395 00a0 0849     		ldr	r1, .L22+16
 396 00a2 FFF7FEFF 		bl	__aeabi_fmul
 397              	.LVL57:
 398 00a6 0849     		ldr	r1, .L22+20
ARM GAS  C:\Users\serga\AppData\Local\Temp\ccBUXdXZ.s 			page 10


 399 00a8 FFF7FEFF 		bl	__aeabi_fdiv
 400              	.LVL58:
 401 00ac 094B     		ldr	r3, .L22+32
 402 00ae 1860     		str	r0, [r3]	@ float
 403 00b0 38BD     		pop	{r3, r4, r5, pc}
 404              	.L23:
 405 00b2 00BF     		.align	2
 406              	.L22:
 407 00b4 00000000 		.word	raw
 408 00b8 00000000 		.word	x
 409 00bc 00000000 		.word	y
 410 00c0 00000000 		.word	z
 411 00c4 9A997940 		.word	1081711002
 412 00c8 00007A44 		.word	1148846080
 413 00cc 00000000 		.word	xg
 414 00d0 00000000 		.word	yg
 415 00d4 00000000 		.word	zg
 416              		.cfi_endproc
 417              	.LFE68:
 418              		.size	Read_XYZ, .-Read_XYZ
 419              		.global	__aeabi_f2uiz
 420              		.section	.text.Offset_Calibration,"ax",%progbits
 421              		.align	2
 422              		.global	Offset_Calibration
 423              		.thumb
 424              		.thumb_func
 425              		.type	Offset_Calibration, %function
 426              	Offset_Calibration:
 427              	.LFB69:
 112:main.c        **** }
 113:main.c        **** 
 114:main.c        **** void Offset_Calibration(void)
 115:main.c        **** {
 428              		.loc 1 115 0
 429              		.cfi_startproc
 430              		@ args = 0, pretend = 0, frame = 0
 431              		@ frame_needed = 0, uses_anonymous_args = 0
 432 0000 38B5     		push	{r3, r4, r5, lr}
 433              		.cfi_def_cfa_offset 16
 434              		.cfi_offset 3, -16
 435              		.cfi_offset 4, -12
 436              		.cfi_offset 5, -8
 437              		.cfi_offset 14, -4
 116:main.c        ****     cal_X = -1 * ((Read_SPI(RA_DATAX1) << 8) | Read_SPI(RA_DATAX0));
 438              		.loc 1 116 0
 439 0002 3320     		movs	r0, #51
 440 0004 FFF7FEFF 		bl	Read_SPI
 441              	.LVL59:
 442 0008 0402     		lsls	r4, r0, #8
 443 000a 3220     		movs	r0, #50
 444 000c FFF7FEFF 		bl	Read_SPI
 445              	.LVL60:
 446 0010 2043     		orrs	r0, r0, r4
 447 0012 194C     		ldr	r4, .L26
 448 0014 4042     		negs	r0, r0
 449 0016 FFF7FEFF 		bl	__aeabi_i2f
 450              	.LVL61:
ARM GAS  C:\Users\serga\AppData\Local\Temp\ccBUXdXZ.s 			page 11


 451 001a 2060     		str	r0, [r4]	@ float
 117:main.c        ****     cal_Y = -1 * ((Read_SPI(RA_DATAY1) << 8) | Read_SPI(RA_DATAY0));
 452              		.loc 1 117 0
 453 001c 3520     		movs	r0, #53
 454 001e FFF7FEFF 		bl	Read_SPI
 455              	.LVL62:
 456 0022 0502     		lsls	r5, r0, #8
 457 0024 3420     		movs	r0, #52
 458 0026 FFF7FEFF 		bl	Read_SPI
 459              	.LVL63:
 460 002a 2843     		orrs	r0, r0, r5
 461 002c 4042     		negs	r0, r0
 462 002e FFF7FEFF 		bl	__aeabi_i2f
 463              	.LVL64:
 464 0032 6060     		str	r0, [r4, #4]	@ float
 118:main.c        ****     cal_Z = -1 * ((Read_SPI(RA_DATAZ1) << 8) | Read_SPI(RA_DATAZ0));
 465              		.loc 1 118 0
 466 0034 3720     		movs	r0, #55
 467 0036 FFF7FEFF 		bl	Read_SPI
 468              	.LVL65:
 469 003a 0502     		lsls	r5, r0, #8
 470 003c 3620     		movs	r0, #54
 471 003e FFF7FEFF 		bl	Read_SPI
 472              	.LVL66:
 473 0042 2843     		orrs	r0, r0, r5
 474 0044 4042     		negs	r0, r0
 475 0046 FFF7FEFF 		bl	__aeabi_i2f
 476              	.LVL67:
 477 004a A060     		str	r0, [r4, #8]	@ float
 119:main.c        ****     
 120:main.c        ****     Write_SPI(RA_OFSX, cal_X);
 478              		.loc 1 120 0
 479 004c 2068     		ldr	r0, [r4]	@ float
 480 004e FFF7FEFF 		bl	__aeabi_f2uiz
 481              	.LVL68:
 482 0052 C1B2     		uxtb	r1, r0
 483 0054 1E20     		movs	r0, #30
 484 0056 FFF7FEFF 		bl	Write_SPI
 485              	.LVL69:
 121:main.c        ****     Write_SPI(RA_OFSY, cal_Y);
 486              		.loc 1 121 0
 487 005a 6068     		ldr	r0, [r4, #4]	@ float
 488 005c FFF7FEFF 		bl	__aeabi_f2uiz
 489              	.LVL70:
 490 0060 C1B2     		uxtb	r1, r0
 491 0062 1F20     		movs	r0, #31
 492 0064 FFF7FEFF 		bl	Write_SPI
 493              	.LVL71:
 122:main.c        ****     Write_SPI(RA_OFSZ, cal_Z);
 494              		.loc 1 122 0
 495 0068 A068     		ldr	r0, [r4, #8]	@ float
 496 006a FFF7FEFF 		bl	__aeabi_f2uiz
 497              	.LVL72:
 498 006e C1B2     		uxtb	r1, r0
 499 0070 2020     		movs	r0, #32
 500 0072 FFF7FEFF 		bl	Write_SPI
 501              	.LVL73:
ARM GAS  C:\Users\serga\AppData\Local\Temp\ccBUXdXZ.s 			page 12


 502 0076 38BD     		pop	{r3, r4, r5, pc}
 503              	.L27:
 504              		.align	2
 505              	.L26:
 506 0078 00000000 		.word	.LANCHOR0
 507              		.cfi_endproc
 508              	.LFE69:
 509              		.size	Offset_Calibration, .-Offset_Calibration
 510              		.global	__aeabi_f2d
 511              		.section	.text.main,"ax",%progbits
 512              		.align	2
 513              		.global	main
 514              		.thumb
 515              		.thumb_func
 516              		.type	main, %function
 517              	main:
 518              	.LFB70:
 123:main.c        **** }
 124:main.c        **** 
 125:main.c        **** int main()
 126:main.c        **** {
 519              		.loc 1 126 0
 520              		.cfi_startproc
 521              		@ Volatile: function does not return.
 522              		@ args = 0, pretend = 0, frame = 0
 523              		@ frame_needed = 0, uses_anonymous_args = 0
 524 0000 08B5     		push	{r3, lr}
 525              		.cfi_def_cfa_offset 8
 526              		.cfi_offset 3, -8
 527              		.cfi_offset 14, -4
 127:main.c        ****     CyGlobalIntEnable; /* Enable global interrupts. */
 528              		.loc 1 127 0
 529              		.syntax unified
 530              	@ 127 "main.c" 1
 531 0002 62B6     		CPSIE   i
 532              	@ 0 "" 2
 128:main.c        **** 
 129:main.c        ****     SPIM_Start();
 533              		.loc 1 129 0
 534              		.thumb
 535              		.syntax unified
 536 0004 FFF7FEFF 		bl	SPIM_Start
 537              	.LVL74:
 130:main.c        ****     Clock_Start();
 538              		.loc 1 130 0
 539 0008 FFF7FEFF 		bl	Clock_Start
 540              	.LVL75:
 131:main.c        ****     UART_Start();
 541              		.loc 1 131 0
 542 000c FFF7FEFF 		bl	UART_Start
 543              	.LVL76:
 132:main.c        ****     
 133:main.c        ****     ADXL345_Init();
 544              		.loc 1 133 0
 545 0010 FFF7FEFF 		bl	ADXL345_Init
 546              	.LVL77:
 134:main.c        ****     //Offset_Calibration();
ARM GAS  C:\Users\serga\AppData\Local\Temp\ccBUXdXZ.s 			page 13


 135:main.c        ****     
 136:main.c        ****     UART_PutString("***ADXL345***");
 547              		.loc 1 136 0
 548 0014 2A48     		ldr	r0, .L31
 549 0016 FFF7FEFF 		bl	UART_PutString
 550              	.LVL78:
 137:main.c        ****     UART_PutString("\r\n");
 551              		.loc 1 137 0
 552 001a 2A48     		ldr	r0, .L31+4
 553 001c FFF7FEFF 		bl	UART_PutString
 554              	.LVL79:
 555              	.L29:
 138:main.c        ****     
 139:main.c        ****     for(;;)
 140:main.c        ****     {        
 141:main.c        ****         Get_Accel_Values();     // reads data byte by byte in multiple sessions
 556              		.loc 1 141 0 discriminator 1
 557 0020 FFF7FEFF 		bl	Get_Accel_Values
 558              	.LVL80:
 142:main.c        ****         //Read_XYZ();           // read data in one session
 143:main.c        **** 
 144:main.c        ****         sprintf(buffer,"X: %3d   ", x);
 559              		.loc 1 144 0 discriminator 1
 560 0024 284C     		ldr	r4, .L31+8
 561 0026 294B     		ldr	r3, .L31+12
 562 0028 B3F90020 		ldrsh	r2, [r3]
 563 002c 2849     		ldr	r1, .L31+16
 564 002e 2046     		mov	r0, r4
 565 0030 FFF7FEFF 		bl	sprintf
 566              	.LVL81:
 145:main.c        ****         UART_PutString(buffer);
 567              		.loc 1 145 0 discriminator 1
 568 0034 2046     		mov	r0, r4
 569 0036 FFF7FEFF 		bl	UART_PutString
 570              	.LVL82:
 146:main.c        **** 
 147:main.c        ****         sprintf(buffer,"Y: %3d   ", y);
 571              		.loc 1 147 0 discriminator 1
 572 003a 264B     		ldr	r3, .L31+20
 573 003c B3F90020 		ldrsh	r2, [r3]
 574 0040 2549     		ldr	r1, .L31+24
 575 0042 2046     		mov	r0, r4
 576 0044 FFF7FEFF 		bl	sprintf
 577              	.LVL83:
 148:main.c        ****         UART_PutString(buffer);
 578              		.loc 1 148 0 discriminator 1
 579 0048 2046     		mov	r0, r4
 580 004a FFF7FEFF 		bl	UART_PutString
 581              	.LVL84:
 149:main.c        **** 
 150:main.c        ****         sprintf(buffer,"Z: %3d   ", z);
 582              		.loc 1 150 0 discriminator 1
 583 004e 234B     		ldr	r3, .L31+28
 584 0050 B3F90020 		ldrsh	r2, [r3]
 585 0054 2249     		ldr	r1, .L31+32
 586 0056 2046     		mov	r0, r4
 587 0058 FFF7FEFF 		bl	sprintf
ARM GAS  C:\Users\serga\AppData\Local\Temp\ccBUXdXZ.s 			page 14


 588              	.LVL85:
 151:main.c        ****         UART_PutString(buffer);
 589              		.loc 1 151 0 discriminator 1
 590 005c 2046     		mov	r0, r4
 591 005e FFF7FEFF 		bl	UART_PutString
 592              	.LVL86:
 152:main.c        ****         
 153:main.c        ****         sprintf(buffer,"Xg: %.2f   ", xg);
 593              		.loc 1 153 0 discriminator 1
 594 0062 204B     		ldr	r3, .L31+36
 595 0064 1868     		ldr	r0, [r3]	@ float
 596 0066 FFF7FEFF 		bl	__aeabi_f2d
 597              	.LVL87:
 598 006a 0246     		mov	r2, r0
 599 006c 0B46     		mov	r3, r1
 600 006e 1E49     		ldr	r1, .L31+40
 601 0070 2046     		mov	r0, r4
 602 0072 FFF7FEFF 		bl	sprintf
 603              	.LVL88:
 154:main.c        ****         UART_PutString(buffer);
 604              		.loc 1 154 0 discriminator 1
 605 0076 2046     		mov	r0, r4
 606 0078 FFF7FEFF 		bl	UART_PutString
 607              	.LVL89:
 155:main.c        **** 
 156:main.c        ****         sprintf(buffer,"Yg: %.2f   ", yg);
 608              		.loc 1 156 0 discriminator 1
 609 007c 1B4B     		ldr	r3, .L31+44
 610 007e 1868     		ldr	r0, [r3]	@ float
 611 0080 FFF7FEFF 		bl	__aeabi_f2d
 612              	.LVL90:
 613 0084 0246     		mov	r2, r0
 614 0086 0B46     		mov	r3, r1
 615 0088 1949     		ldr	r1, .L31+48
 616 008a 2046     		mov	r0, r4
 617 008c FFF7FEFF 		bl	sprintf
 618              	.LVL91:
 157:main.c        ****         UART_PutString(buffer);
 619              		.loc 1 157 0 discriminator 1
 620 0090 2046     		mov	r0, r4
 621 0092 FFF7FEFF 		bl	UART_PutString
 622              	.LVL92:
 158:main.c        **** 
 159:main.c        ****         sprintf(buffer,"Zg: %.2f   ", zg);
 623              		.loc 1 159 0 discriminator 1
 624 0096 174B     		ldr	r3, .L31+52
 625 0098 1868     		ldr	r0, [r3]	@ float
 626 009a FFF7FEFF 		bl	__aeabi_f2d
 627              	.LVL93:
 628 009e 0246     		mov	r2, r0
 629 00a0 0B46     		mov	r3, r1
 630 00a2 1549     		ldr	r1, .L31+56
 631 00a4 2046     		mov	r0, r4
 632 00a6 FFF7FEFF 		bl	sprintf
 633              	.LVL94:
 160:main.c        ****         UART_PutString(buffer);
 634              		.loc 1 160 0 discriminator 1
ARM GAS  C:\Users\serga\AppData\Local\Temp\ccBUXdXZ.s 			page 15


 635 00aa 2046     		mov	r0, r4
 636 00ac FFF7FEFF 		bl	UART_PutString
 637              	.LVL95:
 161:main.c        ****         
 162:main.c        ****         UART_PutString("\r\n");
 638              		.loc 1 162 0 discriminator 1
 639 00b0 0448     		ldr	r0, .L31+4
 640 00b2 FFF7FEFF 		bl	UART_PutString
 641              	.LVL96:
 163:main.c        ****         
 164:main.c        ****         CyDelay(500);
 642              		.loc 1 164 0 discriminator 1
 643 00b6 4FF4FA70 		mov	r0, #500
 644 00ba FFF7FEFF 		bl	CyDelay
 645              	.LVL97:
 646 00be AFE7     		b	.L29
 647              	.L32:
 648              		.align	2
 649              	.L31:
 650 00c0 00000000 		.word	.LC0
 651 00c4 10000000 		.word	.LC1
 652 00c8 00000000 		.word	buffer
 653 00cc 00000000 		.word	x
 654 00d0 14000000 		.word	.LC2
 655 00d4 00000000 		.word	y
 656 00d8 20000000 		.word	.LC3
 657 00dc 00000000 		.word	z
 658 00e0 2C000000 		.word	.LC4
 659 00e4 00000000 		.word	xg
 660 00e8 38000000 		.word	.LC5
 661 00ec 00000000 		.word	yg
 662 00f0 44000000 		.word	.LC6
 663 00f4 00000000 		.word	zg
 664 00f8 50000000 		.word	.LC7
 665              		.cfi_endproc
 666              	.LFE70:
 667              		.size	main, .-main
 668              		.comm	raw,6,4
 669              		.comm	buffer,50,4
 670              		.comm	zg,4,4
 671              		.comm	yg,4,4
 672              		.comm	xg,4,4
 673              		.comm	z,2,2
 674              		.comm	y,2,2
 675              		.comm	x,2,2
 676              		.global	cal_Z
 677              		.global	cal_Y
 678              		.global	cal_X
 679              		.section	.rodata.str1.4,"aMS",%progbits,1
 680              		.align	2
 681              	.LC0:
 682 0000 2A2A2A41 		.ascii	"***ADXL345***\000"
 682      44584C33 
 682      34352A2A 
 682      2A00
 683 000e 0000     		.space	2
 684              	.LC1:
ARM GAS  C:\Users\serga\AppData\Local\Temp\ccBUXdXZ.s 			page 16


 685 0010 0D0A00   		.ascii	"\015\012\000"
 686 0013 00       		.space	1
 687              	.LC2:
 688 0014 583A2025 		.ascii	"X: %3d   \000"
 688      33642020 
 688      2000
 689 001e 0000     		.space	2
 690              	.LC3:
 691 0020 593A2025 		.ascii	"Y: %3d   \000"
 691      33642020 
 691      2000
 692 002a 0000     		.space	2
 693              	.LC4:
 694 002c 5A3A2025 		.ascii	"Z: %3d   \000"
 694      33642020 
 694      2000
 695 0036 0000     		.space	2
 696              	.LC5:
 697 0038 58673A20 		.ascii	"Xg: %.2f   \000"
 697      252E3266 
 697      20202000 
 698              	.LC6:
 699 0044 59673A20 		.ascii	"Yg: %.2f   \000"
 699      252E3266 
 699      20202000 
 700              	.LC7:
 701 0050 5A673A20 		.ascii	"Zg: %.2f   \000"
 701      252E3266 
 701      20202000 
 702              		.bss
 703              		.align	2
 704              		.set	.LANCHOR0,. + 0
 705              		.type	cal_X, %object
 706              		.size	cal_X, 4
 707              	cal_X:
 708 0000 00000000 		.space	4
 709              		.type	cal_Y, %object
 710              		.size	cal_Y, 4
 711              	cal_Y:
 712 0004 00000000 		.space	4
 713              		.type	cal_Z, %object
 714              		.size	cal_Z, 4
 715              	cal_Z:
 716 0008 00000000 		.space	4
 717              		.text
 718              	.Letext0:
 719              		.file 2 "c:\\program files (x86)\\cypress\\psoc creator\\4.4\\psoc creator\\import\\gnu\\arm\\5.4.
 720              		.file 3 "c:\\program files (x86)\\cypress\\psoc creator\\4.4\\psoc creator\\import\\gnu\\arm\\5.4.
 721              		.file 4 "Generated_Source\\PSoC5/cytypes.h"
 722              		.file 5 "Generated_Source\\PSoC5/core_cm3.h"
 723              		.file 6 "Generated_Source\\PSoC5/SPIM.h"
 724              		.file 7 "Generated_Source\\PSoC5/CyLib.h"
 725              		.file 8 "Generated_Source\\PSoC5/Clock.h"
 726              		.file 9 "Generated_Source\\PSoC5/UART.h"
 727              		.file 10 "c:\\program files (x86)\\cypress\\psoc creator\\4.4\\psoc creator\\import\\gnu\\arm\\5.4